(lp0
ccopy_reg
_reconstructor
p1
(c__main__
Perishable
p2
c__builtin__
object
p3
Ntp4
Rp5
(dp6
S'experationDate'
p7
cdatetime
date
p8
(S'\x07\xe6\x02\x02'
p9
tp10
Rp11
sS'_time_left'
p12
I653
sS'name'
p13
VJif Extra Crunchy Peanut Butter, 28-Ounce
p14
sS'today'
p15
g8
(S'\x07\xe4\x04\x14'
p16
tp17
Rp18
sba.