(lp0
ccopy_reg
_reconstructor
p1
(c__main__
Perishable
p2
c__builtin__
object
p3
Ntp4
Rp5
(dp6
S'experationDate'
p7
cdatetime
date
p8
<<<<<<< HEAD
(S'\x07\xe4\x04\x1b'
=======
(S'\x07\xe4\x05\x05'
>>>>>>> master
p9
tp10
Rp11
sS'_time_left'
p12
<<<<<<< HEAD
I-20
sS'name'
p13
S'Milk'
=======
I8
sS'name'
p13
S'Soup'
>>>>>>> master
p14
sS'today'
p15
g8
<<<<<<< HEAD
(S'\x07\xe4\x05\x11'
p16
tp17
Rp18
sbag1
(g2
g3
Ntp19
Rp20
(dp21
g7
g8
(S'\x07\xe4\x05\n'
p22
tp23
Rp24
sg12
I-7
sg13
S'Milk'
p25
sg15
g8
(S'\x07\xe4\x05\x11'
p26
tp27
Rp28
sbag1
(g2
g3
Ntp29
Rp30
(dp31
g7
g8
(S'\x07\xe4\x05\x18'
p32
tp33
Rp34
sg12
I7
sg13
S'Leftovers'
p35
sg15
g8
(S'\x07\xe4\x05\x11'
p36
tp37
Rp38
sbag1
(g2
g3
Ntp39
Rp40
(dp41
g7
g8
(S'\x07\xe4\x05\x18'
p42
tp43
Rp44
sg12
I7
sg13
S'Leftovers'
p45
sg15
g8
(S'\x07\xe4\x05\x11'
p46
tp47
Rp48
sbag1
(g2
g3
Ntp49
Rp50
(dp51
g7
g8
(S'\x07\xe4\x05\x18'
p52
tp53
Rp54
sg12
I7
sg13
S'Leftovers'
p55
sg15
g8
(S'\x07\xe4\x05\x11'
p56
tp57
Rp58
sbag1
(g2
g3
Ntp59
Rp60
(dp61
g7
g8
(S'\x07\xe4\x05\x18'
p62
tp63
Rp64
sg12
I7
sg13
S'Leftovers'
p65
sg15
g8
(S'\x07\xe4\x05\x11'
p66
tp67
Rp68
sbag1
(g2
g3
Ntp69
Rp70
(dp71
g7
g8
(S'\x07\xe4\x05\x18'
p72
tp73
Rp74
sg12
I7
sg13
S'Leftovers'
p75
sg15
g8
(S'\x07\xe4\x05\x11'
p76
tp77
Rp78
sbag1
(g2
g3
Ntp79
Rp80
(dp81
g7
g8
(S'\x07\xe4\x05\x18'
p82
tp83
Rp84
sg12
I7
sg13
S'Leftovers'
p85
sg15
g8
(S'\x07\xe4\x05\x11'
p86
tp87
Rp88
sbag1
(g2
g3
Ntp89
Rp90
(dp91
g7
g8
(S'\x07\xe4\x05\x18'
p92
tp93
Rp94
sg12
I7
sg13
S'Leftovers'
p95
sg15
g8
(S'\x07\xe4\x05\x11'
p96
tp97
Rp98
sbag1
(g2
g3
Ntp99
Rp100
(dp101
g7
g8
(S'\x07\xe4\x05\x18'
p102
tp103
Rp104
sg12
I7
sg13
S'Leftovers'
p105
sg15
g8
(S'\x07\xe4\x05\x11'
p106
tp107
Rp108
sbag1
(g2
g3
Ntp109
Rp110
(dp111
g7
g8
(S'\x07\xe4\x05\x1b'
p112
tp113
Rp114
sg12
I10
sg13
S'Milk'
p115
sg15
g8
(S'\x07\xe4\x05\x11'
p116
tp117
Rp118
sbag1
(g2
g3
Ntp119
Rp120
(dp121
g7
g8
(S'\x07\xe4\x05\x1b'
p122
tp123
Rp124
sg12
I10
sg13
S'Bread'
p125
sg15
g8
(S'\x07\xe4\x05\x11'
p126
tp127
Rp128
sbag1
(g2
g3
Ntp129
Rp130
(dp131
g7
g8
(S'\x07\xe4\x05\x1b'
p132
tp133
Rp134
sg12
I10
sg13
S'Milk'
p135
sg15
g8
(S'\x07\xe4\x05\x11'
p136
tp137
Rp138
sbag1
(g2
g3
Ntp139
Rp140
(dp141
g7
g8
(S'\x07\xe4\x05\x1b'
p142
tp143
Rp144
sg12
I10
sg13
S'Milk'
p145
sg15
g8
(S'\x07\xe4\x05\x11'
p146
tp147
Rp148
sbag1
(g2
g3
Ntp149
Rp150
(dp151
g7
g8
(S'\x07\xe4\x05\x1b'
p152
tp153
Rp154
sg12
I10
sg13
S'Milk'
p155
sg15
g8
(S'\x07\xe4\x05\x11'
p156
tp157
Rp158
sbag1
(g2
g3
Ntp159
Rp160
(dp161
g7
g8
(S'\x07\xe4\x05\x1b'
p162
tp163
Rp164
sg12
I10
sg13
S'Milk'
p165
sg15
g8
(S'\x07\xe4\x05\x11'
p166
tp167
Rp168
sbag1
(g2
g3
Ntp169
Rp170
(dp171
g7
g8
(S'\x07\xe4\x05\x1b'
p172
tp173
Rp174
sg12
I10
sg13
S'Milk'
p175
sg15
g8
(S'\x07\xe4\x05\x11'
p176
tp177
Rp178
sbag1
(g2
g3
Ntp179
Rp180
(dp181
g7
g8
(S'\x07\xe4\x05\x1b'
p182
tp183
Rp184
sg12
I10
sg13
S'Bread'
p185
sg15
g8
(S'\x07\xe4\x05\x11'
p186
tp187
Rp188
sbag1
(g2
g3
Ntp189
Rp190
(dp191
g7
g8
(S'\x07\xe4\x05\x1b'
p192
tp193
Rp194
sg12
I10
sg13
S'Bread'
p195
sg15
g8
(S'\x07\xe4\x05\x11'
p196
tp197
Rp198
sbag1
(g2
g3
Ntp199
Rp200
(dp201
g7
g8
(S'\x07\xe4\x05\x18'
p202
tp203
Rp204
sg12
I7
sg13
S'Leftovers'
p205
sg15
g8
(S'\x07\xe4\x05\x11'
p206
tp207
Rp208
=======
(S'\x07\xe4\x04\x1b'
p16
tp17
Rp18
>>>>>>> master
sba.