(lp0
ccopy_reg
_reconstructor
p1
(c__main__
Perishable
p2
c__builtin__
object
p3
Ntp4
Rp5
(dp6
S'experationDate'
p7
cdatetime
date
p8
(S'\x07\xe4\x04\x1a'
p9
tp10
Rp11
sS'_time_left'
p12
I2
sS'name'
p13
VJif Extra Crunchy Peanut Butter, 28-Ounce
p14
sS'today'
p15
g8
(S'\x07\xe4\x04\x18'
p16
tp17
Rp18
sbag1
(g2
g3
Ntp19
Rp20
(dp21
g7
g8
(S'\x07\xe4\x04\x1e'
p22
tp23
Rp24
sg12
I6
sg13
S'Milk'
p25
sg15
g8
(S'\x07\xe4\x04\x18'
p26
tp27
Rp28
sba.