(lp0
ccopy_reg
_reconstructor
p1
(c__main__
Perishable
p2
c__builtin__
object
p3
Ntp4
Rp5
(dp6
S'experationDate'
p7
cdatetime
date
p8
(S'\x07\xe4\x05\x1a'
p9
tp10
Rp11
sS'_time_left'
p12
I7
sS'name'
p13
S'Leftovers'
p14
sS'today'
p15
g8
(S'\x07\xe4\x05\x13'
p16
tp17
Rp18
sbag1
(g2
g3
Ntp19
Rp20
(dp21
g7
g8
(S'\x07\xe4\x05\x1a'
p22
tp23
Rp24
sg12
I7
sg13
S'Leftovers'
p25
sg15
g8
(S'\x07\xe4\x05\x13'
p26
tp27
Rp28
sbag1
(g2
g3
Ntp29
Rp30
(dp31
g7
g8
(S'\x07\xe4\x06\x01'
p32
tp33
Rp34
sg12
I13
sg13
S'Milk'
p35
sg15
g8
(S'\x07\xe4\x05\x13'
p36
tp37
Rp38
sbag1
(g2
g3
Ntp39
Rp40
(dp41
g7
g8
(S'\x07\xe4\x06\x01'
p42
tp43
Rp44
sg12
I13
sg13
S'Bread'
p45
sg15
g8
(S'\x07\xe4\x05\x13'
p46
tp47
Rp48
sbag1
(g2
g3
Ntp49
Rp50
(dp51
g7
g8
(S'\x07\xe4\x06\x01'
p52
tp53
Rp54
sg12
I13
sg13
S'Bread'
p55
sg15
g8
(S'\x07\xe4\x05\x13'
p56
tp57
Rp58
sbag1
(g2
g3
Ntp59
Rp60
(dp61
g7
g8
(S'\x07\xe4\x06\x01'
p62
tp63
Rp64
sg12
I13
sg13
S'Bread'
p65
sg15
g8
(S'\x07\xe4\x05\x13'
p66
tp67
Rp68
sbag1
(g2
g3
Ntp69
Rp70
(dp71
g7
g8
(S'\x07\xe4\x06\x01'
p72
tp73
Rp74
sg12
I13
sg13
S'Bread'
p75
sg15
g8
(S'\x07\xe4\x05\x13'
p76
tp77
Rp78
sbag1
(g2
g3
Ntp79
Rp80
(dp81
g7
g8
(S'\x07\xe4\x05\x1a'
p82
tp83
Rp84
sg12
I7
sg13
S'Leftovers'
p85
sg15
g8
(S'\x07\xe4\x05\x13'
p86
tp87
Rp88
sba.