(lp0
ccopy_reg
_reconstructor
p1
(c__main__
Perishable
p2
c__builtin__
object
p3
Ntp4
Rp5
(dp6
S'experationDate'
p7
cdatetime
date
p8
(S'\x07\xe4\x05\x05'
p9
tp10
Rp11
sS'_time_left'
p12
I-13
sS'name'
p13
S'Leftovers 1'
p14
sS'today'
p15
g8
(S'\x07\xe4\x05\x12'
p16
tp17
Rp18
sbag1
(g2
g3
Ntp19
Rp20
(dp21
g7
g8
(S'\x07\xe4\x05\x06'
p22
tp23
Rp24
sg12
I-12
sg13
S'Borden Dutch Chocolate Milk, 8 Fl. Oz.'
p25
sg15
g8
(S'\x07\xe4\x05\x12'
p26
tp27
Rp28
sbag1
(g2
g3
Ntp29
Rp30
(dp31
g7
g8
(S'\x07\xe4\x05\x10'
p32
tp33
Rp34
sg12
I-2
sg13
S'Borden Dutch Chocolate Milk, 8 Fl. Oz.'
p35
sg15
g8
(S'\x07\xe4\x05\x12'
p36
tp37
Rp38
sbag1
(g2
g3
Ntp39
Rp40
(dp41
g7
g8
(S'\x07\xe4\x05\x1c'
p42
tp43
Rp44
sg12
I10
sg13
S'Bread'
p45
sg15
g8
(S'\x07\xe4\x05\x12'
p46
tp47
Rp48
sbag1
(g2
g3
Ntp49
Rp50
(dp51
g7
g8
(S'\x07\xe4\x06\x01'
p52
tp53
Rp54
sg12
I14
sg13
S'Leftovers 2'
p55
sg15
g8
(S'\x07\xe4\x05\x12'
p56
tp57
Rp58
sbag1
(g2
g3
Ntp59
Rp60
(dp61
g7
g8
(S'\x07\xe4\x05\x17'
p62
tp63
Rp64
sg12
I5
sg13
S'Borden Dutch Chocolate Milk, 8 Fl. Oz.'
p65
sg15
g8
(S'\x07\xe4\x05\x12'
p66
tp67
Rp68
sba.