(lp0
ccopy_reg
_reconstructor
p1
(c__main__
Perishable
p2
c__builtin__
object
p3
Ntp4
Rp5
(dp6
S'experationDate'
p7
cdatetime
date
p8
(S'\x07\xe4\x05\x02'
p9
tp10
Rp11
sS'_time_left'
p12
I-11
sS'name'
p13
S'(2 Pack) Jif Extra Crunchy Peanut Butter, 28 Oz'
p14
sS'today'
p15
g8
(S'\x07\xe4\x05\r'
p16
tp17
Rp18
sbag1
(g2
g3
Ntp19
Rp20
(dp21
g7
g8
(S'\x07\xe4\x05\r'
p22
tp23
Rp24
sg12
I0
sg13
V(2 Pack) Jif Extra Crunchy Peanut Butter, 28 Oz
p25
sg15
g8
(S'\x07\xe4\x05\r'
p26
tp27
Rp28
sbag1
(g2
g3
Ntp29
Rp30
(dp31
g7
g8
(S'\x07\xe4\x05\x14'
p32
tp33
Rp34
sg12
I7
sg13
S'Leftovers'
p35
sg15
g8
(S'\x07\xe4\x05\r'
p36
tp37
Rp38
sbag1
(g2
g3
Ntp39
Rp40
(dp41
g7
g8
(S'\x07\xe4\x05\x1e'
p42
tp43
Rp44
sg12
I17
sg13
S'(2 Pack) Jif Extra Crunchy Peanut Butter, 28 Oz'
p45
sg15
g8
(S'\x07\xe4\x05\r'
p46
tp47
Rp48
sba.